target datalayout = "e-m:e-p270:32:32-p271:32:32-p272:64:64-i64:64-i128:128-f80:128-n8:16:32:64-S128"
target triple = "x86_64-pc-linux-gnu"

%struct.hwloc_obj = type { i32, ptr, i32, ptr, i64, ptr, i32, i32, ptr, ptr, ptr, i32, ptr, ptr, i32, ptr, ptr, ptr, i32, i32, ptr, i32, ptr, i32, ptr, ptr, ptr, ptr, ptr, ptr, i32, ptr, i64 }

; Function Attrs: inlinehint nounwind willreturn memory(read) uwtable
define internal ptr @hwloc_get_obj_by_type(ptr noundef %0, i32 noundef %1, i32 noundef %2) #2 {
  %4 = alloca ptr, align 8
  %5 = alloca ptr, align 8
  %6 = alloca i32, align 4
  %7 = alloca i32, align 4
  %8 = alloca i32, align 4
  %9 = alloca i32, align 4
  store ptr %0, ptr %5, align 8, !tbaa !3
  store i32 %1, ptr %6, align 4, !tbaa !19
  store i32 %2, ptr %7, align 4, !tbaa !19
  call void @llvm.lifetime.start.p0(i64 4, ptr %8) #10
  %10 = load ptr, ptr %5, align 8, !tbaa !3
  %11 = load i32, ptr %6, align 4, !tbaa !19
  %12 = call i32 @hwloc_get_type_depth(ptr noundef %10, i32 noundef %11)
  store i32 %12, ptr %8, align 4, !tbaa !19
  %13 = load i32, ptr %8, align 4, !tbaa !19
  %14 = icmp eq i32 %13, -1
  br i1 %14, label %15, label %16

15:                                               ; preds = %3
  store ptr null, ptr %4, align 8
  store i32 1, ptr %9, align 4
  br label %25

16:                                               ; preds = %3
  %17 = load i32, ptr %8, align 4, !tbaa !19
  %18 = icmp eq i32 %17, -2
  br i1 %18, label %19, label %20

19:                                               ; preds = %16
  store ptr null, ptr %4, align 8
  store i32 1, ptr %9, align 4
  br label %25

20:                                               ; preds = %16
  %21 = load ptr, ptr %5, align 8, !tbaa !3
  %22 = load i32, ptr %8, align 4, !tbaa !19
  %23 = load i32, ptr %7, align 4, !tbaa !19
  %24 = call ptr @hwloc_get_obj_by_depth(ptr noundef %21, i32 noundef %22, i32 noundef %23) #11
  store ptr %24, ptr %4, align 8
  store i32 1, ptr %9, align 4
  br label %25

25:                                               ; preds = %20, %19, %15
  call void @llvm.lifetime.end.p0(i64 4, ptr %8) #10
  %26 = load ptr, ptr %4, align 8
  ret ptr %26
}

; Function Attrs: nounwind uwtable
define zeroext i1 @prte_hwloc_base_core_cpus(ptr noundef %0) #0 {
  %2 = alloca i1, align 1
  %3 = alloca ptr, align 8
  %4 = alloca ptr, align 8
  %5 = alloca ptr, align 8
  %6 = alloca i32, align 4
  store ptr %0, ptr %3, align 8, !tbaa !3
  call void @llvm.lifetime.start.p0(i64 8, ptr %4) #10
  call void @llvm.lifetime.start.p0(i64 8, ptr %5) #10
  %7 = load ptr, ptr %3, align 8, !tbaa !3
  %8 = call ptr @hwloc_get_obj_by_type(ptr noundef %7, i32 noundef 2, i32 noundef 0) #11
  store ptr %8, ptr %4, align 8, !tbaa !8
  %9 = load ptr, ptr %4, align 8, !tbaa !8
  %10 = icmp eq ptr null, %9
  br i1 %10, label %11, label %12

11:                                               ; preds = %1
  store i1 false, ptr %2, align 1
  store i32 1, ptr %6, align 4
  br label %25

12:                                               ; preds = %1
  %13 = load ptr, ptr %3, align 8, !tbaa !3
  %14 = call ptr @hwloc_get_obj_by_type(ptr noundef %13, i32 noundef 3, i32 noundef 0) #11
  store ptr %14, ptr %5, align 8, !tbaa !8
  %15 = load ptr, ptr %4, align 8, !tbaa !8
  %16 = getelementptr inbounds nuw %struct.hwloc_obj, ptr %15, i32 0, i32 25
  %17 = load ptr, ptr %16, align 8, !tbaa !10
  %18 = load ptr, ptr %5, align 8, !tbaa !8
  %19 = getelementptr inbounds nuw %struct.hwloc_obj, ptr %18, i32 0, i32 25
  %20 = load ptr, ptr %19, align 8, !tbaa !10
  %21 = call i32 @hwloc_bitmap_isequal(ptr noundef %17, ptr noundef %20) #11
  %22 = icmp ne i32 %21, 0
  br i1 %22, label %23, label %24

23:                                               ; preds = %12
  store i1 false, ptr %2, align 1
  store i32 1, ptr %6, align 4
  br label %25

24:                                               ; preds = %12
  store i1 true, ptr %2, align 1
  store i32 1, ptr %6, align 4
  br label %25

25:                                               ; preds = %24, %23, %11
  call void @llvm.lifetime.end.p0(i64 8, ptr %5) #10
  call void @llvm.lifetime.end.p0(i64 8, ptr %4) #10
  %26 = load i1, ptr %2, align 1
  ret i1 %26
}