; Function Attrs: nounwind uwtable
define zeroext i1 @prte_hwloc_base_core_cpus(ptr noundef %0) local_unnamed_addr #0 {
  %2 = tail call i32 @hwloc_get_type_depth(ptr noundef %0, i32 noundef 2) #18
  %switch.i = icmp ugt i32 %2, -3
  br i1 %switch.i, label %hwloc_get_obj_by_type.exit.thread, label %hwloc_get_obj_by_type.exit

hwloc_get_obj_by_type.exit:                       ; preds = %1
  %3 = tail call ptr @hwloc_get_obj_by_depth(ptr noundef %0, i32 noundef %2, i32 noundef 0) #19
  %4 = icmp eq ptr %3, null
  br i1 %4, label %hwloc_get_obj_by_type.exit.thread, label %hwloc_get_obj_by_type.exit9

hwloc_get_obj_by_type.exit9:                      ; preds = %hwloc_get_obj_by_type.exit
  %5 = tail call i32 @hwloc_get_type_depth(ptr noundef %0, i32 noundef 3) #18
  %switch.i7 = icmp ult i32 %5, -2
  tail call void @llvm.assume(i1 %switch.i7)
  %6 = tail call ptr @hwloc_get_obj_by_depth(ptr noundef %0, i32 noundef %5, i32 noundef 0) #19
  %7 = getelementptr inbounds nuw i8, ptr %3, i64 184
  %8 = load ptr, ptr %7, align 8, !tbaa !3
  %9 = getelementptr inbounds nuw i8, ptr %6, i64 184
  %10 = load ptr, ptr %9, align 8, !tbaa !3
  %11 = tail call i32 @hwloc_bitmap_isequal(ptr noundef %8, ptr noundef %10) #19
  %.not = icmp eq i32 %11, 0
  br label %hwloc_get_obj_by_type.exit.thread

hwloc_get_obj_by_type.exit.thread:                ; preds = %1, %hwloc_get_obj_by_type.exit9, %hwloc_get_obj_by_type.exit
  %.0 = phi i1 [ false, %hwloc_get_obj_by_type.exit ], [ %.not, %hwloc_get_obj_by_type.exit9 ], [ false, %1 ]
  ret i1 %.0
}